; ModuleID = 'source-C-CXX/56/3306.c'
source_filename = "source-C-CXX/56/3306.c"
target datalayout = "e-m:e-p270:32:32-p271:32:32-p272:64:64-i64:64-f80:128-n8:16:32:64-S128"
target triple = "x86_64-pc-linux-gnu"

@.str = private unnamed_addr constant [3 x i8] c"%d\00", align 1
@.str.1 = private unnamed_addr constant [3 x i8] c"%s\00", align 1

; Function Attrs: nofree nounwind sspstrong uwtable
define dso_local i32 @main() local_unnamed_addr #0 {
  %1 = alloca [100 x i8], align 16
  %2 = alloca i32, align 4
  %3 = getelementptr inbounds [100 x i8], [100 x i8]* %1, i64 0, i64 0
  call void @llvm.lifetime.start.p0i8(i64 100, i8* nonnull %3) #5
  %4 = bitcast i32* %2 to i8*
  call void @llvm.lifetime.start.p0i8(i64 4, i8* nonnull %4) #5
  %5 = call i32 (i8*, ...) @__isoc99_scanf(i8* getelementptr inbounds ([3 x i8], [3 x i8]* @.str, i64 0, i64 0), i32* nonnull %2)
  %6 = load i32, i32* %2, align 4, !tbaa !5
  %7 = icmp sgt i32 %6, 0
  br i1 %7, label %8, label %65

8:                                                ; preds = %0, %61
  %9 = phi i32 [ %62, %61 ], [ 0, %0 ]
  %10 = call i32 (i8*, ...) @__isoc99_scanf(i8* getelementptr inbounds ([3 x i8], [3 x i8]* @.str.1, i64 0, i64 0), i8* nonnull %3)
  %11 = call i64 @strlen(i8* noundef nonnull %3) #6
  %12 = add i64 %11, -1
  %13 = getelementptr inbounds [100 x i8], [100 x i8]* %1, i64 0, i64 %12
  %14 = load i8, i8* %13, align 1, !tbaa !9
  %15 = icmp eq i8 %14, 114
  br i1 %15, label %16, label %22

16:                                               ; preds = %8
  %17 = add i64 %11, -2
  %18 = getelementptr inbounds [100 x i8], [100 x i8]* %1, i64 0, i64 %17
  %19 = load i8, i8* %18, align 1, !tbaa !9
  %20 = icmp eq i8 %19, 101
  br i1 %20, label %21, label %22

21:                                               ; preds = %16
  store i8 0, i8* %18, align 1, !tbaa !9
  br label %22

22:                                               ; preds = %21, %16, %8
  %23 = call i64 @strlen(i8* noundef nonnull %3) #6
  %24 = add i64 %23, -1
  %25 = getelementptr inbounds [100 x i8], [100 x i8]* %1, i64 0, i64 %24
  %26 = load i8, i8* %25, align 1, !tbaa !9
  %27 = icmp eq i8 %26, 103
  br i1 %27, label %28, label %39

28:                                               ; preds = %22
  %29 = add i64 %23, -2
  %30 = getelementptr inbounds [100 x i8], [100 x i8]* %1, i64 0, i64 %29
  %31 = load i8, i8* %30, align 1, !tbaa !9
  %32 = icmp eq i8 %31, 110
  br i1 %32, label %33, label %39

33:                                               ; preds = %28
  %34 = add i64 %23, -3
  %35 = getelementptr inbounds [100 x i8], [100 x i8]* %1, i64 0, i64 %34
  %36 = load i8, i8* %35, align 1, !tbaa !9
  %37 = icmp eq i8 %36, 105
  br i1 %37, label %38, label %39

38:                                               ; preds = %33
  store i8 0, i8* %35, align 1, !tbaa !9
  br label %39

39:                                               ; preds = %38, %33, %28, %22
  %40 = call i64 @strlen(i8* noundef nonnull %3) #6
  %41 = add i64 %40, -1
  %42 = getelementptr inbounds [100 x i8], [100 x i8]* %1, i64 0, i64 %41
  %43 = load i8, i8* %42, align 1, !tbaa !9
  %44 = icmp eq i8 %43, 121
  br i1 %44, label %45, label %51

45:                                               ; preds = %39
  %46 = add i64 %40, -2
  %47 = getelementptr inbounds [100 x i8], [100 x i8]* %1, i64 0, i64 %46
  %48 = load i8, i8* %47, align 1, !tbaa !9
  %49 = icmp eq i8 %48, 108
  br i1 %49, label %50, label %51

50:                                               ; preds = %45
  store i8 0, i8* %47, align 1, !tbaa !9
  br label %51

51:                                               ; preds = %50, %45, %39
  %52 = call i32 @puts(i8* nonnull %3)
  %53 = load i8, i8* %3, align 16
  %54 = icmp eq i8 %53, 0
  br i1 %54, label %61, label %55

55:                                               ; preds = %51, %55
  %56 = phi i64 [ %58, %55 ], [ 0, %51 ]
  %57 = getelementptr inbounds [100 x i8], [100 x i8]* %1, i64 0, i64 %56
  store i8 0, i8* %57, align 1, !tbaa !9
  %58 = add nuw nsw i64 %56, 1
  %59 = call i64 @strlen(i8* noundef nonnull %3) #6
  %60 = icmp ugt i64 %59, %58
  br i1 %60, label %55, label %61, !llvm.loop !10

61:                                               ; preds = %55, %51
  %62 = add nuw nsw i32 %9, 1
  %63 = load i32, i32* %2, align 4, !tbaa !5
  %64 = icmp slt i32 %62, %63
  br i1 %64, label %8, label %65, !llvm.loop !12

65:                                               ; preds = %61, %0
  call void @llvm.lifetime.end.p0i8(i64 4, i8* nonnull %4) #5
  call void @llvm.lifetime.end.p0i8(i64 100, i8* nonnull %3) #5
  ret i32 0
}

; Function Attrs: argmemonly mustprogress nofree nosync nounwind willreturn
declare void @llvm.lifetime.start.p0i8(i64 immarg, i8* nocapture) #1

; Function Attrs: nofree nounwind
declare noundef i32 @__isoc99_scanf(i8* nocapture noundef readonly, ...) local_unnamed_addr #2

; Function Attrs: argmemonly mustprogress nofree nounwind readonly willreturn
declare i64 @strlen(i8* nocapture) local_unnamed_addr #3

; Function Attrs: argmemonly mustprogress nofree nosync nounwind willreturn
declare void @llvm.lifetime.end.p0i8(i64 immarg, i8* nocapture) #1

; Function Attrs: nofree nounwind
declare noundef i32 @puts(i8* nocapture noundef readonly) local_unnamed_addr #4


!llvm.module.flags = !{!0, !1, !2, !3}
!llvm.ident = !{!4}

!0 = !{i32 1, !"wchar_size", i32 4}
!1 = !{i32 7, !"PIC Level", i32 2}
!2 = !{i32 7, !"PIE Level", i32 2}
!3 = !{i32 7, !"uwtable", i32 1}
!4 = !{!"clang version 13.0.0"}
!5 = !{!6, !6, i64 0}
!6 = !{!"int", !7, i64 0}
!7 = !{!"omnipotent char", !8, i64 0}
!8 = !{!"Simple C/C++ TBAA"}
!9 = !{!7, !7, i64 0}
!10 = distinct !{!10, !11}
!11 = !{!"llvm.loop.mustprogress"}
!12 = distinct !{!12, !11}
